; Function Attrs: mustprogress ssp uwtable
define void @_ZNK6open3d8geometry20HalfEdgeTriangleMeshplERKS1_(ptr dead_on_unwind noalias writable sret(%"class.open3d::geometry::HalfEdgeTriangleMesh") align 8 %0, ptr noundef nonnull align 8 dereferenceable(216) %1, ptr noundef nonnull align 8 dereferenceable(216) %2) local_unnamed_addr #1 align 2 personality ptr @__gxx_personality_v0 {
  %4 = alloca %"class.open3d::geometry::HalfEdgeTriangleMesh", align 8
  call void @llvm.lifetime.start.p0(i64 216, ptr nonnull %4) #34
  call void @_ZN6open3d8geometry20HalfEdgeTriangleMeshC2ERKS1_(ptr noundef nonnull align 8 dereferenceable(216) %4, ptr noundef nonnull align 8 dereferenceable(216) %1)
  %5 = invoke noundef nonnull align 8 dereferenceable(120) ptr @_ZN6open3d8geometry8MeshBasepLERKS1_(ptr noundef nonnull align 8 dereferenceable(216) %4, ptr noundef nonnull align 8 dereferenceable(216) %2)
          to label %_ZN6open3d8geometry20HalfEdgeTriangleMeshpLERKS1_.exit unwind label %7

_ZN6open3d8geometry20HalfEdgeTriangleMeshpLERKS1_.exit: ; preds = %3
  invoke void @_ZN6open3d8geometry20HalfEdgeTriangleMeshC2ERKS1_(ptr noundef nonnull align 8 dereferenceable(216) %0, ptr noundef nonnull align 8 dereferenceable(216) %4)
          to label %6 unwind label %7

6:                                                ; preds = %_ZN6open3d8geometry20HalfEdgeTriangleMeshpLERKS1_.exit
  call void @_ZN6open3d8geometry20HalfEdgeTriangleMeshD2Ev(ptr noundef nonnull align 8 dereferenceable(216) %4) #34
  call void @llvm.lifetime.end.p0(i64 216, ptr nonnull %4) #34
  ret void

7:                                                ; preds = %3, %_ZN6open3d8geometry20HalfEdgeTriangleMeshpLERKS1_.exit
  %8 = landingpad { ptr, i32 }
          cleanup
  call void @_ZN6open3d8geometry20HalfEdgeTriangleMeshD2Ev(ptr noundef nonnull align 8 dereferenceable(216) %4) #34
  call void @llvm.lifetime.end.p0(i64 216, ptr nonnull %4) #34
  resume { ptr, i32 } %8
}